; Function Attrs: mustprogress uwtable
define void @_ZN6icu_756number4impl17ParsedPatternInfo14consumePaddingE24UNumberFormatPadPositionR10UErrorCode(ptr nocapture noundef nonnull align 8 dereferenceable(433) %this, i32 noundef %paddingLocation, ptr nocapture noundef nonnull writeonly align 4 dereferenceable(4) %status) local_unnamed_addr #1 align 2 {
entry:
  %state = getelementptr inbounds i8, ptr %this, i64 408
  %offset.i = getelementptr inbounds i8, ptr %this, i64 416
  %0 = load i32, ptr %offset.i, align 8
  %1 = load ptr, ptr %state, align 8
  %fUnion.i.i.i = getelementptr inbounds i8, ptr %1, i64 8
  %2 = load i16, ptr %fUnion.i.i.i, align 8
  %cmp.i.i.i = icmp slt i16 %2, 0
  %3 = ashr i16 %2, 5
  %shr.i.i.i = sext i16 %3 to i32
  %fLength.i.i = getelementptr inbounds i8, ptr %1, i64 12
  %4 = load i32, ptr %fLength.i.i, align 4
  %cond.i.i = select i1 %cmp.i.i.i, i32 %4, i32 %shr.i.i.i
  %cmp.i = icmp eq i32 %0, %cond.i.i
  br i1 %cmp.i, label %return, label %_ZN6icu_756number4impl17ParsedPatternInfo11ParserState4peekEv.exit

_ZN6icu_756number4impl17ParsedPatternInfo11ParserState4peekEv.exit: ; preds = %entry
  %call4.i = tail call noundef i32 @_ZNK6icu_7513UnicodeString8char32AtEi(ptr noundef nonnull align 8 dereferenceable(64) %1, i32 noundef %0)
  %cmp.not = icmp eq i32 %call4.i, 42
  br i1 %cmp.not, label %if.end, label %return

if.end:                                           ; preds = %_ZN6icu_756number4impl17ParsedPatternInfo11ParserState4peekEv.exit
  %currentSubpattern = getelementptr inbounds i8, ptr %this, i64 424
  %5 = load ptr, ptr %currentSubpattern, align 8
  %hasPadding = getelementptr inbounds i8, ptr %5, i64 48
  %6 = load i8, ptr %hasPadding, align 8
  %7 = and i8 %6, 1
  %tobool.not = icmp eq i8 %7, 0
  br i1 %tobool.not, label %if.end4, label %if.then2

if.then2:                                         ; preds = %if.end
  store i32 65798, ptr %status, align 4
  br label %return

if.end4:                                          ; preds = %if.end
  %paddingLocation6 = getelementptr inbounds i8, ptr %5, i64 52
  store i32 %paddingLocation, ptr %paddingLocation6, align 4
  %8 = load ptr, ptr %currentSubpattern, align 8
  %hasPadding8 = getelementptr inbounds i8, ptr %8, i64 48
  store i8 1, ptr %hasPadding8, align 8
  %9 = load i32, ptr %offset.i, align 8
  %10 = load ptr, ptr %state, align 8
  %fUnion.i.i.i.i = getelementptr inbounds i8, ptr %10, i64 8
  %11 = load i16, ptr %fUnion.i.i.i.i, align 8
  %cmp.i.i.i.i = icmp slt i16 %11, 0
  %12 = ashr i16 %11, 5
  %shr.i.i.i.i = sext i16 %12 to i32
  %fLength.i.i.i = getelementptr inbounds i8, ptr %10, i64 12
  %13 = load i32, ptr %fLength.i.i.i, align 4
  %cond.i.i.i = select i1 %cmp.i.i.i.i, i32 %13, i32 %shr.i.i.i.i
  %cmp.i.i = icmp eq i32 %9, %cond.i.i.i
  br i1 %cmp.i.i, label %_ZN6icu_756number4impl17ParsedPatternInfo11ParserState4nextEv.exit, label %_ZN6icu_756number4impl17ParsedPatternInfo11ParserState4peekEv.exit.i

_ZN6icu_756number4impl17ParsedPatternInfo11ParserState4peekEv.exit.i: ; preds = %if.end4
  %call4.i.i = tail call noundef i32 @_ZNK6icu_7513UnicodeString8char32AtEi(ptr noundef nonnull align 8 dereferenceable(64) %10, i32 noundef %9)
  %cmp.i2 = icmp ult i32 %call4.i.i, 65536
  %spec.select.i = select i1 %cmp.i2, i32 1, i32 2
  %.pre.i = load i32, ptr %offset.i, align 8
  br label %_ZN6icu_756number4impl17ParsedPatternInfo11ParserState4nextEv.exit

_ZN6icu_756number4impl17ParsedPatternInfo11ParserState4nextEv.exit: ; preds = %if.end4, %_ZN6icu_756number4impl17ParsedPatternInfo11ParserState4peekEv.exit.i
  %14 = phi i32 [ %9, %if.end4 ], [ %.pre.i, %_ZN6icu_756number4impl17ParsedPatternInfo11ParserState4peekEv.exit.i ]
  %15 = phi i32 [ 2, %if.end4 ], [ %spec.select.i, %_ZN6icu_756number4impl17ParsedPatternInfo11ParserState4peekEv.exit.i ]
  %add.i = add nsw i32 %15, %14
  store i32 %add.i, ptr %offset.i, align 8
  %16 = load ptr, ptr %currentSubpattern, align 8
  %paddingEndpoints = getelementptr inbounds i8, ptr %16, i64 160
  store i32 %add.i, ptr %paddingEndpoints, align 8
  tail call void @_ZN6icu_756number4impl17ParsedPatternInfo14consumeLiteralER10UErrorCode(ptr noundef nonnull align 8 dereferenceable(433) %this, ptr noundef nonnull align 4 dereferenceable(4) %status)
  %17 = load i32, ptr %offset.i, align 8
  %18 = load ptr, ptr %currentSubpattern, align 8
  %end = getelementptr inbounds i8, ptr %18, i64 164
  store i32 %17, ptr %end, align 4
  br label %return

return:                                           ; preds = %entry, %_ZN6icu_756number4impl17ParsedPatternInfo11ParserState4peekEv.exit, %_ZN6icu_756number4impl17ParsedPatternInfo11ParserState4nextEv.exit, %if.then2
  ret void
}